target datalayout = "e-m:e-p270:32:32-p271:32:32-p272:64:64-i64:64-i128:128-f80:128-n8:16:32:64-S128"
target triple = "x86_64-pc-linux-gnu"

@.str.22 = private unnamed_addr constant [9 x i8] c"Starting\00", align 1
@.str.23 = private unnamed_addr constant [13 x i8] c"Opening file\00", align 1
@.str.24 = private unnamed_addr constant [17 x i8] c"Reading metadata\00", align 1
@.str.25 = private unnamed_addr constant [15 x i8] c"Adjusting size\00", align 1
@.str.26 = private unnamed_addr constant [17 x i8] c"Reading RAW data\00", align 1
@.str.27 = private unnamed_addr constant [21 x i8] c"Clearing zero values\00", align 1
@.str.28 = private unnamed_addr constant [21 x i8] c"Removing dead pixels\00", align 1
@.str.29 = private unnamed_addr constant [28 x i8] c"Subtracting dark frame data\00", align 1
@.str.30 = private unnamed_addr constant [33 x i8] c"Interpolating Foveon sensor data\00", align 1
@.str.31 = private unnamed_addr constant [15 x i8] c"Scaling colors\00", align 1
@.str.32 = private unnamed_addr constant [18 x i8] c"Pre-interpolating\00", align 1
@.str.33 = private unnamed_addr constant [14 x i8] c"Interpolating\00", align 1
@.str.34 = private unnamed_addr constant [22 x i8] c"Mixing green channels\00", align 1
@.str.35 = private unnamed_addr constant [14 x i8] c"Median filter\00", align 1
@.str.36 = private unnamed_addr constant [19 x i8] c"Highlight recovery\00", align 1
@.str.37 = private unnamed_addr constant [28 x i8] c"Rotating Fuji diagonal data\00", align 1
@.str.38 = private unnamed_addr constant [15 x i8] c"Flipping image\00", align 1
@.str.39 = private unnamed_addr constant [15 x i8] c"ICC conversion\00", align 1
@.str.40 = private unnamed_addr constant [18 x i8] c"Converting to RGB\00", align 1
@.str.41 = private unnamed_addr constant [17 x i8] c"Stretching image\00", align 1
@.str.42 = private unnamed_addr constant [18 x i8] c"Loading thumbnail\00", align 1
@.str.43 = private unnamed_addr constant [20 x i8] c"Some strange things\00", align 1

; Function Attrs: mustprogress nounwind uwtable
define noundef ptr @_ZN6LibRaw11strprogressE15LibRaw_progress(i32 noundef %0) #0 align 2 {
  %2 = alloca ptr, align 8
  %3 = alloca i32, align 4
  store i32 %0, ptr %3, align 4, !tbaa !116
  %4 = load i32, ptr %3, align 4, !tbaa !116
  switch i32 %4, label %26 [
    i32 0, label %5
    i32 1, label %6
    i32 2, label %7
    i32 4, label %8
    i32 8, label %9
    i32 32, label %10
    i32 64, label %11
    i32 128, label %12
    i32 256, label %13
    i32 512, label %14
    i32 1024, label %15
    i32 2048, label %16
    i32 4096, label %17
    i32 8192, label %18
    i32 16384, label %19
    i32 32768, label %20
    i32 65536, label %21
    i32 131072, label %22
    i32 262144, label %23
    i32 524288, label %24
    i32 268435456, label %25
  ]

5:                                                ; preds = %1
  store ptr @.str.22, ptr %2, align 8
  br label %27

6:                                                ; preds = %1
  store ptr @.str.23, ptr %2, align 8
  br label %27

7:                                                ; preds = %1
  store ptr @.str.24, ptr %2, align 8
  br label %27

8:                                                ; preds = %1
  store ptr @.str.25, ptr %2, align 8
  br label %27

9:                                                ; preds = %1
  store ptr @.str.26, ptr %2, align 8
  br label %27

10:                                               ; preds = %1
  store ptr @.str.27, ptr %2, align 8
  br label %27

11:                                               ; preds = %1
  store ptr @.str.28, ptr %2, align 8
  br label %27

12:                                               ; preds = %1
  store ptr @.str.29, ptr %2, align 8
  br label %27

13:                                               ; preds = %1
  store ptr @.str.30, ptr %2, align 8
  br label %27

14:                                               ; preds = %1
  store ptr @.str.31, ptr %2, align 8
  br label %27

15:                                               ; preds = %1
  store ptr @.str.32, ptr %2, align 8
  br label %27

16:                                               ; preds = %1
  store ptr @.str.33, ptr %2, align 8
  br label %27

17:                                               ; preds = %1
  store ptr @.str.34, ptr %2, align 8
  br label %27

18:                                               ; preds = %1
  store ptr @.str.35, ptr %2, align 8
  br label %27

19:                                               ; preds = %1
  store ptr @.str.36, ptr %2, align 8
  br label %27

20:                                               ; preds = %1
  store ptr @.str.37, ptr %2, align 8
  br label %27

21:                                               ; preds = %1
  store ptr @.str.38, ptr %2, align 8
  br label %27

22:                                               ; preds = %1
  store ptr @.str.39, ptr %2, align 8
  br label %27

23:                                               ; preds = %1
  store ptr @.str.40, ptr %2, align 8
  br label %27

24:                                               ; preds = %1
  store ptr @.str.41, ptr %2, align 8
  br label %27

25:                                               ; preds = %1
  store ptr @.str.42, ptr %2, align 8
  br label %27

26:                                               ; preds = %1
  store ptr @.str.43, ptr %2, align 8
  br label %27

27:                                               ; preds = %26, %25, %24, %23, %22, %21, %20, %19, %18, %17, %16, %15, %14, %13, %12, %11, %10, %9, %8, %7, %6, %5
  %28 = load ptr, ptr %2, align 8
  ret ptr %28
}