; Function Attrs: mustprogress nofree norecurse nosync nounwind willreturn memory(none) uwtable
define noundef nonnull ptr @_ZN6LibRaw11strprogressE15LibRaw_progress(i32 noundef %0) local_unnamed_addr #2 align 2 {
  switch i32 %0, label %22 [
    i32 0, label %23
    i32 1, label %2
    i32 2, label %3
    i32 4, label %4
    i32 8, label %5
    i32 32, label %6
    i32 64, label %7
    i32 128, label %8
    i32 256, label %9
    i32 512, label %10
    i32 1024, label %11
    i32 2048, label %12
    i32 4096, label %13
    i32 8192, label %14
    i32 16384, label %15
    i32 32768, label %16
    i32 65536, label %17
    i32 131072, label %18
    i32 262144, label %19
    i32 524288, label %20
    i32 268435456, label %21
  ]

2:                                                ; preds = %1
  br label %23

3:                                                ; preds = %1
  br label %23

4:                                                ; preds = %1
  br label %23

5:                                                ; preds = %1
  br label %23

6:                                                ; preds = %1
  br label %23

7:                                                ; preds = %1
  br label %23

8:                                                ; preds = %1
  br label %23

9:                                                ; preds = %1
  br label %23

10:                                               ; preds = %1
  br label %23

11:                                               ; preds = %1
  br label %23

12:                                               ; preds = %1
  br label %23

13:                                               ; preds = %1
  br label %23

14:                                               ; preds = %1
  br label %23

15:                                               ; preds = %1
  br label %23

16:                                               ; preds = %1
  br label %23

17:                                               ; preds = %1
  br label %23

18:                                               ; preds = %1
  br label %23

19:                                               ; preds = %1
  br label %23

20:                                               ; preds = %1
  br label %23

21:                                               ; preds = %1
  br label %23

22:                                               ; preds = %1
  br label %23

23:                                               ; preds = %1, %22, %21, %20, %19, %18, %17, %16, %15, %14, %13, %12, %11, %10, %9, %8, %7, %6, %5, %4, %3, %2
  %.0 = phi ptr [ @.str.43, %22 ], [ @.str.42, %21 ], [ @.str.41, %20 ], [ @.str.40, %19 ], [ @.str.39, %18 ], [ @.str.38, %17 ], [ @.str.37, %16 ], [ @.str.36, %15 ], [ @.str.35, %14 ], [ @.str.34, %13 ], [ @.str.33, %12 ], [ @.str.32, %11 ], [ @.str.31, %10 ], [ @.str.30, %9 ], [ @.str.29, %8 ], [ @.str.28, %7 ], [ @.str.27, %6 ], [ @.str.26, %5 ], [ @.str.25, %4 ], [ @.str.24, %3 ], [ @.str.23, %2 ], [ @.str.22, %1 ]
  ret ptr %.0
}